; Function Attrs: nounwind sspstrong uwtable
define dso_local zeroext i1 @riscv_pmu_ctr_monitor_instructions(ptr noundef readonly captures(none) %env, i32 noundef %target_ctr) local_unnamed_addr #0 {
entry:
  %cmp = icmp eq i32 %target_ctr, 2
  br i1 %cmp, label %return, label %if.end

if.end:                                           ; preds = %entry
  %pmu_event_ctr_map = getelementptr i8, ptr %env, i64 9008
  %0 = load ptr, ptr %pmu_event_ctr_map, align 16
  %tobool.not = icmp eq ptr %0, null
  br i1 %tobool.not, label %return, label %if.end2

if.end2:                                          ; preds = %if.end
  %call4 = tail call ptr @g_hash_table_lookup(ptr noundef nonnull %0, ptr noundef nonnull inttoptr (i64 2 to ptr)) #6
  %1 = ptrtoint ptr %call4 to i64
  %conv5 = trunc i64 %1 to i32
  %tobool6.not = icmp ne i32 %conv5, 0
  %cmp9 = icmp eq i32 %target_ctr, %conv5
  %spec.select = and i1 %tobool6.not, %cmp9
  br label %return

return:                                           ; preds = %if.end2, %if.end, %entry
  %retval.0 = phi i1 [ true, %entry ], [ false, %if.end ], [ %spec.select, %if.end2 ]
  ret i1 %retval.0
}